(dp1
S'5223 3.0'
p2
(dp3
S'ArcQuadReal'
p4
(dp5
S'0.0'
p6
(dp7
S'1.15'
p8
(lp9
cnumpy.core.multiarray
scalar
p10
(cnumpy
dtype
p11
(S'f8'
I0
I1
tRp12
(I3
S'<'
NNNI-1
I-1
I0
tbS'\xf6\xa1Y2D\xf9\xf7?'
tRp13
aI2
asS'1.10'
p14
(lp15
g10
(g12
S'P;3"\xc9\xbc#?'
tRp16
aI2
asS'1.40'
p17
(lp18
g10
(g12
S'\xe0\x9c\x13P\xdf\xf0\x17@'
tRp19
aI2
asS'1.30'
p20
(lp21
g10
(g12
S'\x0c\xd4\xde\x87uz\x12@'
tRp22
aI2
asS'1.50'
p23
(lp24
g10
(g12
S'\xa8\xbc>\x13\n\x93\x1c@'
tRp25
aI2
asS'1.45'
p26
(lp27
g10
(g12
S'\x16\xe7g\xcb?O\x1a@'
tRp28
aI2
asS'1.20'
p29
(lp30
g10
(g12
S'\x1e\xe1\x1d\x00\xe4\xe6\x06@'
tRp31
aI2
asS'1.35'
p32
(lp33
g10
(g12
S'\x06\xc7\x83(kS\x15@'
tRp34
aI2
asS'1.25'
p35
(lp36
g10
(g12
S'<+"+d\x9d\x0e@'
tRp37
aI2
assS'0.5'
p38
(dp39
S'1.15'
p40
(lp41
g10
(g12
S'\xaen\x0e2Oo\x01@'
tRp42
aI2
asS'1.10'
p43
(lp44
g10
(g12
S'r\xa1\xcb{K\xf8%?'
tRp45
aI2
asS'1.35'
p46
(lp47
g10
(g12
S'\xb8\xdd&\x01\x99\x1b\x19@'
tRp48
aI2
asS'1.30'
p49
(lp50
g10
(g12
S'So\x9fO\xf44\x16@'
tRp51
aI2
asS'1.50'
p52
(lp53
g10
(g12
S'\x825\xf7]\x0cH @'
tRp54
aI2
asS'1.45'
p55
(lp56
g10
(g12
S'\xf0\xcf\x8d\xb1i;\x1e@'
tRp57
aI2
asS'1.20'
p58
(lp59
g10
(g12
S'\x08\r\xb9\xea6\xcf\r@'
tRp60
aI2
asS'1.40'
p61
(lp62
g10
(g12
S'\xe9h\xab\xa4}\xba\x1b@'
tRp63
aI2
asS'1.25'
p64
(lp65
g10
(g12
S'\xb2\x8a\xaa8\xf2\xd4\x12@'
tRp66
aI2
assS'1.0'
p67
(dp68
S'1.15'
p69
(lp70
g10
(g12
S',\xf6\xcd\x06g\xd4\x02@'
tRp71
aI2
asS'1.10'
p72
(lp73
g10
(g12
S'1d\x0c\xb0\xc3\xf3!?'
tRp74
aI2
asS'1.35'
p75
(lp76
g10
(g12
S'^\x8f\xc9;\xb5\xec\x1c@'
tRp77
aI2
asS'1.30'
p78
(lp79
g10
(g12
S'\xfa>D\\\xd3\xd2\x19@'
tRp80
aI2
asS'1.50'
p81
(lp82
g10
(g12
S'\xe2\x9b\xf1M\x05e"@'
tRp83
aI2
asS'1.45'
p84
(lp85
g10
(g12
S'N,\xeb\xe5D*!@'
tRp86
aI2
asS'1.20'
p87
(lp88
g10
(g12
S'\xf0k\xf0\xeb\xc1\xa6\x11@'
tRp89
aI2
asS'1.40'
p90
(lp91
g10
(g12
S'\xa5\x0c\xa0\x92\xef\xba\x1f@'
tRp92
aI2
asS'1.25'
p93
(lp94
g10
(g12
S'\xd2>\x80\x92\x9f*\x16@'
tRp95
aI2
asssS'Drift'
p96
(dp97
S'0.0'
p98
(dp99
S'1.15'
p100
(lp101
g10
(g12
S'\xe1`\x8cq\x7f\xc4\xe3?'
tRp102
aI2
asS'1.10'
p103
(lp104
g10
(g12
S'\xd6\x14e\x14\x84w\xe0?'
tRp105
aI2
asS'1.35'
p106
(lp107
g10
(g12
S'6JA\x1c3\xc1\xf9?'
tRp108
aI2
asS'1.30'
p109
(lp110
g10
(g12
S'\x1cVX\x1e#\xca\xf3?'
tRp111
aI2
asS'1.50'
p112
(lp113
g10
(g12
S'\x06\x98\x19X\x89j\x07@'
tRp114
aI2
asS'1.45'
p115
(lp116
g10
(g12
S'\xd6\xdeZnk\xf9\x03@'
tRp117
aI2
asS'1.20'
p118
(lp119
g10
(g12
S'i+^K\x11K\xe8?'
tRp120
aI2
asS'1.40'
p121
(lp122
g10
(g12
S'l!\xb2\xf6\x87a\x00@'
tRp123
aI2
asS'1.25'
p124
(lp125
g10
(g12
S"c\x01:T'\xa0\xee?"
tRp126
aI2
assS'0.5'
p127
(dp128
S'1.15'
p129
(lp130
g10
(g12
S'z\r\xeb\x8e\xcb&\xe7?'
tRp131
aI2
asS'1.10'
p132
(lp133
g10
(g12
S'0\xc8(\xe6\x1d\x1a\xe3?'
tRp134
aI2
asS'1.35'
p135
(lp136
g10
(g12
S"\xec\xfe'n\x08=\x01@"
tRp137
aI2
asS'1.30'
p138
(lp139
g10
(g12
S'\xb9\xe1B\x87\xa3E\xf9?'
tRp140
aI2
asS'1.50'
p141
(lp142
g10
(g12
S'x\x8d\xa0\xcec\xba\x0f@'
tRp143
aI2
asS'1.45'
p144
(lp145
g10
(g12
S'\x80\x93L\x04\x88g\x0b@'
tRp146
aI2
asS'1.20'
p147
(lp148
g10
(g12
S'\x90\xf4\xbaa_\xe9\xec?'
tRp149
aI2
asS'1.40'
p150
(lp151
g10
(g12
S'|\xb8\xad\xf7;{\x06@'
tRp152
aI2
asS'1.25'
p153
(lp154
g10
(g12
S'\xa8\xa9\xc6\x810\xbb\xf2?'
tRp155
aI2
assS'1.0'
p156
(dp157
S'1.15'
p158
(lp159
g10
(g12
S'\xba\x1b\x05\x82xI\xe9?'
tRp160
aI2
asS'1.10'
p161
(lp162
g10
(g12
S'\xb8\xdc4\xb8\xd3\xd0\xe4?'
tRp163
aI2
asS'1.40'
p164
(lp165
g10
(g12
S'&a2\x18\t\x1e\x0c@'
tRp166
aI2
asS'1.30'
p167
(lp168
g10
(g12
S'\xa7\x07\t6c\xef\xfc?'
tRp169
aI2
asS'1.50'
p170
(lp171
g10
(g12
S'\xe3\xad\xc2\xef\x12\xd0\x13@'
tRp172
aI2
asS'1.45'
p173
(lp174
g10
(g12
S';\xd2,)\x9d9\x11@'
tRp175
aI2
asS'1.20'
p176
(lp177
g10
(g12
S'5|\xcb\x91\xe4\xbe\xef?'
tRp178
aI2
asS'1.35'
p179
(lp180
g10
(g12
S'\xf7Z\xa1qg\xd4\x04@'
tRp181
aI2
asS'1.25'
p182
(lp183
g10
(g12
S'\x8a\x99\xcb\x03\xba\xd6\xf4?'
tRp184
aI2
asssS'ArcDipReal'
p185
(dp186
S'1.0'
p187
(dp188
S'1.15'
p189
(lp190
g10
(g12
S'h[\xc0\xae?\xcf%?'
tRp191
aI2
asS'1.10'
p192
(lp193
g10
(g12
S'\x8czS\x1aT\xa4"?'
tRp194
aI2
asS'1.40'
p195
(lp196
g10
(g12
S'K"Wo\xe1\xbf\xda?'
tRp197
aI2
asS'1.45'
p198
(lp199
g10
(g12
S'\x08p\x84\xb6\xfaO\xfd?'
tRp200
aI2
asS'1.50'
p201
(lp202
g10
(g12
S'\x1d\xc3\xee\xb5qX\x02@'
tRp203
aI2
asS'1.30'
p204
(lp205
g10
(g12
S'\x96\xbe\xe6^\xef\xac2?'
tRp206
aI2
asS'1.20'
p207
(lp208
g10
(g12
S'\xf8\xd0J\xa1\x8f\x98)?'
tRp209
aI2
asS'1.35'
p210
(lp211
g10
(g12
S' 5\xa7\x0e\x8e\x1b7?'
tRp212
aI2
asS'1.25'
p213
(lp214
g10
(g12
S'{u\xb5\xaf\x84q/?'
tRp215
aI2
assS'0.5'
p216
(dp217
S'1.15'
p218
(lp219
g10
(g12
S"\xd3s\xf1\xca^\xc9'?"
tRp220
aI2
asS'1.10'
p221
(lp222
g10
(g12
S'O\x1e(\x1b\x14\xc4#?'
tRp223
aI2
asS'1.40'
p224
(lp225
g10
(g12
S'j\xab#\x1c4\xe1\xdc?'
tRp226
aI2
asS'1.45'
p227
(lp228
g10
(g12
S'\xe4\xb3\xe437\\\xfa?'
tRp229
aI2
asS'1.50'
p230
(lp231
g10
(g12
S'n\xec\x1bF{\x04\x00@'
tRp232
aI2
asS'1.30'
p233
(lp234
g10
(g12
S'o\xdb\xa4<D\x884?'
tRp235
aI2
asS'1.20'
p236
(lp237
g10
(g12
S'Y\x87\x90\xd3\x11\x8c+?'
tRp238
aI2
asS'1.35'
p239
(lp240
g10
(g12
S'\x8c\xd6\x8be\xe5c9?'
tRp241
aI2
asS'1.25'
p242
(lp243
g10
(g12
S'J\x01\xc8\x1e\x9a~0?'
tRp244
aI2
assS'0.0'
p245
(dp246
S'1.15'
p247
(lp248
g10
(g12
S'D\x8amI\xad>&?'
tRp249
aI2
asS'1.10'
p250
(lp251
g10
(g12
S'\xaa\x13,2Y\x88"?'
tRp252
aI2
asS'1.40'
p253
(lp254
g10
(g12
S'\x16\xdc\xb4\xf7\x8d+\xd5?'
tRp255
aI2
asS'1.45'
p256
(lp257
g10
(g12
S'\xb4\xe6\x89\xfb\x07\xe1\xec?'
tRp258
aI2
asS'1.50'
p259
(lp260
g10
(g12
S'\xc4r\x86E\n,\xf3?'
tRp261
aI2
asS'1.30'
p262
(lp263
g10
(g12
S'\xd1\x1a?\xc6\x1f^3?'
tRp264
aI2
asS'1.20'
p265
(lp266
g10
(g12
S'\x10b\x85_VO*?'
tRp267
aI2
asS'1.35'
p268
(lp269
g10
(g12
S'\x8c\x85\xaa\x0e\x94\xaf8?'
tRp270
aI2
asS'1.25'
p271
(lp272
g10
(g12
S'\x84\xd1\xaa\x1c\x84\x81/?'
tRp273
aI2
assssS'5223 2.3'
p274
(dp275
S'ArcQuadReal'
p276
(dp277
S'1.0'
p278
(dp279
S'1.15'
p280
(lp281
g10
(g12
S'KU\xb0\xd8\x1a\xc6\xfa?'
tRp282
aI2
asS'1.10'
p283
(lp284
g10
(g12
S'\x1c\xc8\xffL\x8b!5?'
tRp285
aI2
asS'1.35'
p286
(lp287
g10
(g12
S'G\xddeC\x12]\x15@'
tRp288
aI2
asS'1.30'
p289
(lp290
g10
(g12
S'\xf6I\xf7\xc1\xac\x0f\x13@'
tRp291
aI2
asS'1.50'
p292
(lp293
g10
(g12
S'\xad\x93\x8eO\xa3j\x0b@'
tRp294
aI1
asS'1.45'
p295
(lp296
g10
(g12
S'r\x9b\x1c\x9bQ[\x19@'
tRp297
aI2
asS'1.20'
p298
(lp299
g10
(g12
S'\xcc\xf8\x9a\xee\x97\xef\t@'
tRp300
aI2
asS'1.40'
p301
(lp302
g10
(g12
S'A\xd2\xf21\x93s\x17@'
tRp303
aI2
asS'1.25'
p304
(lp305
g10
(g12
S'l\n\xc3\xffrj\x10@'
tRp306
aI2
assS'0.5'
p307
(dp308
S'1.15'
p309
(lp310
g10
(g12
S'NJ\x90\x90\x84\x02\xfa?'
tRp311
aI2
asS'1.10'
p312
(lp313
g10
(g12
S'\x9a\xae\x95(\xc6S8?'
tRp314
aI2
asS'1.35'
p315
(lp316
g10
(g12
S'\xb5\t_m\xed\xf6\x12@'
tRp317
aI2
asS'1.30'
p318
(lp319
g10
(g12
S'\xe58z\xb8I\xcd\x10@'
tRp320
aI2
asS'1.50'
p321
(lp322
g10
(g12
S'\xdd\xd6\xd5\xce\x7f\x87\x18@'
tRp323
aI2
asS'1.45'
p324
(lp325
g10
(g12
S'\xf6\xf7N\x94W\xcc\x16@'
tRp326
aI2
asS'1.20'
p327
(lp328
g10
(g12
S'\xb5A\xe3\xc1\xadu\x06@'
tRp329
aI2
asS'1.40'
p330
(lp331
g10
(g12
S'\xea<\xb8\xc1\xae\xf7\x14@'
tRp332
aI2
asS'1.25'
p333
(lp334
g10
(g12
S'>\x06D\xc6\x03\xa1\x0c@'
tRp335
aI2
assS'0.0'
p336
(dp337
S'1.15'
p338
(lp339
g10
(g12
S'\xeb\tM\x8a\x1f(\xf1?'
tRp340
aI2
asS'1.10'
p341
(lp342
g10
(g12
S'\x942\x87\x18U\x173?'
tRp343
aI2
asS'1.40'
p344
(lp345
g10
(g12
S'\x04~\x89m\xa1\x19\x12@'
tRp346
aI2
asS'1.30'
p347
(lp348
g10
(g12
S'\xcc\xb7r\x0c+\xfc\x0b@'
tRp349
aI2
asS'1.50'
p350
(lp351
g10
(g12
S'<7\xd9<\xbd\x9a\x15@'
tRp352
aI2
asS'1.45'
p353
(lp354
g10
(g12
S'P\xc6]a\x95\xe8\x13@'
tRp355
aI2
asS'1.20'
p356
(lp357
g10
(g12
S'F\x89W\x0b#\x18\x01@'
tRp358
aI2
asS'1.35'
p359
(lp360
g10
(g12
S'\xbd\xfc\xceC\xc6"\x10@'
tRp361
aI2
asS'1.25'
p362
(lp363
g10
(g12
S'l\xb3SU\xeb\x0b\x07@'
tRp364
aI2
asssS'ArcDipReal'
p365
(dp366
S'0.0'
p367
(dp368
S'1.15'
p369
(lp370
g10
(g12
S'{\x1b\x1e;x#&?'
tRp371
aI2
asS'1.10'
p372
(lp373
g10
(g12
S'\xd3N\xb8z\xd3a"?'
tRp374
aI2
asS'1.40'
p375
(lp376
g10
(g12
S'\xd6\x90\x07$\x08\xf4\xdc?'
tRp377
aI2
asS'1.45'
p378
(lp379
g10
(g12
S':\xdd\xdeS\x1a=\xea?'
tRp380
aI2
asS'1.50'
p381
(lp382
g10
(g12
S'\x03e\x7fk\xd8\xc1\xf2?'
tRp383
aI2
asS'1.30'
p384
(lp385
g10
(g12
S'&\xc7\x13\x078u3?'
tRp386
aI2
asS'1.20'
p387
(lp388
g10
(g12
S'\xdf3\x8f;=\xb8)?'
tRp389
aI2
asS'1.35'
p390
(lp391
g10
(g12
S'\xde\xe2\xe2\x15Bl8?'
tRp392
aI2
asS'1.25'
p393
(lp394
g10
(g12
S'\xccM\xd6\xb3\x87\xc2/?'
tRp395
aI2
assS'1.0'
p396
(dp397
S'1.15'
p398
(lp399
g10
(g12
S'\xa4q\x1e\x10e\xe0%?'
tRp400
aI2
asS'1.10'
p401
(lp402
g10
(g12
S'\n\xa8\xdc\xf7\x1e\xc0"?'
tRp403
aI2
asS'1.40'
p404
(lp405
g10
(g12
S'\x08\xc8\xd2\x88&O\xec?'
tRp406
aI2
asS'1.45'
p407
(lp408
g10
(g12
S'\xe6\xe3\x86&i\xbc\xff?'
tRp409
aI2
asS'1.50'
p410
(lp411
g10
(g12
S'\x1aKTU\xcbg\x03@'
tRp412
aI2
asS'1.30'
p413
(lp414
g10
(g12
S'\xb2,\x98\xb3\x1b\x123?'
tRp415
aI2
asS'1.20'
p416
(lp417
g10
(g12
S'\x96T\xfd\xbeX\xe1)?'
tRp418
aI2
asS'1.35'
p419
(lp420
g10
(g12
S'\xd6F\xe5\x0f\x99\xec7?'
tRp421
aI2
asS'1.25'
p422
(lp423
g10
(g12
S'\xb5w\xda{*\xf4.?'
tRp424
aI2
assS'0.5'
p425
(dp426
S'1.15'
p427
(lp428
g10
(g12
S"\xce\xd2\x86 \x94\x9a'?"
tRp429
aI2
asS'1.10'
p430
(lp431
g10
(g12
S'\xde\xd7\xcc\x85\x93V$?'
tRp432
aI2
asS'1.40'
p433
(lp434
g10
(g12
S'6\x89\x1bC\xf0\xb6\xef?'
tRp435
aI2
asS'1.30'
p436
(lp437
g10
(g12
S'\xa6\x84\xd9\xe8\x1c\xc34?'
tRp438
aI2
asS'1.50'
p439
(lp440
g10
(g12
S'\xac\xd1\xfb\xf6\x10\x92\x00@'
tRp441
aI2
asS'1.45'
p442
(lp443
g10
(g12
S'\xb0\x87\xe4\xf3:n\xfb?'
tRp444
aI2
asS'1.20'
p445
(lp446
g10
(g12
S'\x8e@>\x07]\xd5+?'
tRp447
aI2
asS'1.35'
p448
(lp449
g10
(g12
S'Z\x0c5\xd9\x16\x9c9?'
tRp450
aI2
asS'1.25'
p451
(lp452
g10
(g12
S'\x0c\xd56\x0b\xb8\xba0?'
tRp453
aI2
assssS'5219 1.8'
p454
(dp455
S'ArcQuadReal'
p456
(dp457
S'0.0'
p458
(dp459
S'1.15'
p460
(lp461
g10
(g12
S'\xbdojc\xd4\xff\xee?'
tRp462
aI2
asS'1.10'
p463
(lp464
g10
(g12
S'\xe2"\xa3\xe5\x00(9?'
tRp465
aI2
asS'1.40'
p466
(lp467
g10
(g12
S'1=O=\x93x(@'
tRp468
aI2
asS'1.30'
p469
(lp470
g10
(g12
S'RI\xa8\x1c\xf2\xd8"@'
tRp471
aI2
asS'1.50'
p472
(lp473
g10
(g12
S'*\xcdi\x06\x99\\-@'
tRp474
aI2
asS'1.45'
p475
(lp476
g10
(g12
S'\x96\x9ci\xeb\xc1\x00+@'
tRp477
aI2
asS'1.20'
p478
(lp479
g10
(g12
S'Prz\xa2\x8fq\x16@'
tRp480
aI2
asS'1.35'
p481
(lp482
g10
(g12
S'\x15\xae\xcdW\xe7\x8c\x15@'
tRp483
aI1
asS'1.25'
p484
(lp485
g10
(g12
S'\x0e\x88\xf9\x96\xf0\xd3\x1e@'
tRp486
aI2
assS'1.0'
p487
(dp488
S'1.15'
p489
(lp490
g10
(g12
S'\x94\x12\x9c\xff=\xdbK?'
tRp491
aI2
asS'1.10'
p492
(lp493
g10
(g12
S'|\x90n5#V8?'
tRp494
aI2
asS'1.35'
p495
(lp496
g10
(g12
S'\xd6\xae\x06\x17yO+@'
tRp497
aI2
asS'1.45'
p498
(lp499
g10
(g12
S'\x99Adv\x95s0@'
tRp500
aI2
asS'1.50'
p501
(lp502
g10
(g12
S'N\x0cK\x98\xb1\xb21@'
tRp503
aI2
asS'1.30'
p504
(lp505
g10
(g12
S'\x19\t\x9fy7#(@'
tRp506
aI2
asS'1.20'
p507
(lp508
g10
(g12
S'L\xe9\x89kWW\x1e@'
tRp509
aI2
asS'1.40'
p510
(lp511
g10
(g12
S'\xf6\xe9\xb1\x97\x12H.@'
tRp512
aI2
asS'1.25'
p513
(lp514
g10
(g12
S'\x05L\x04\xd6ER$@'
tRp515
aI2
assS'0.5'
p516
(dp517
S'1.15'
p518
(lp519
g10
(g12
S"\xf0\xfdQ3'\xa3Z?"
tRp520
aI2
asS'1.10'
p521
(lp522
g10
(g12
S'\xf0\x1cE\xc1Bb9?'
tRp523
aI2
asS'1.35'
p524
(lp525
g10
(g12
S'\xc1~h\x07\x95w(@'
tRp526
aI2
asS'1.45'
p527
(lp528
g10
(g12
S'\x0c\xf6X\xf3;\xdb-@'
tRp529
aI2
asS'1.50'
p530
(lp531
g10
(g12
S'Y\x13A\xf3\xca!0@'
tRp532
aI2
asS'1.30'
p533
(lp534
g10
(g12
S'f\xbf\xfc\x999p%@'
tRp535
aI2
asS'1.20'
p536
(lp537
g10
(g12
S'\xb2:u\xef_\x9c\x1a@'
tRp538
aI2
asS'1.40'
p539
(lp540
g10
(g12
S'\x95\xa2\xe3\x08\xca@+@'
tRp541
aI2
asS'1.25'
p542
(lp543
g10
(g12
S'\x16W\xa3cN\xd6!@'
tRp544
aI2
asssS'Drift'
p545
(dp546
S'0.0'
p547
(dp548
S'1.15'
p549
(lp550
g10
(g12
S'\xbcf9\xabb+\x05@'
tRp551
aI2
asS'1.10'
p552
(lp553
g10
(g12
S'\xb0\xf42\xae\xd8\xb3\x01@'
tRp554
aI2
asS'1.35'
p555
(lp556
g10
(g12
S'\xc2?\x18\xfc5\xcd\x17@'
tRp557
aI2
asS'1.30'
p558
(lp559
g10
(g12
S'\xb1\x87T\x98z\x93\x13@'
tRp560
aI2
asS'1.50'
p561
(lp562
g10
(g12
S'\x89E#\x9a>&"@'
tRp563
aI2
asS'1.45'
p564
(lp565
g10
(g12
S'\xfc\xcd\x93\x89\x1f+ @'
tRp566
aI2
asS'1.20'
p567
(lp568
g10
(g12
S'\xecU\xb0\xd1\x98\xb8\t@'
tRp569
aI2
asS'1.40'
p570
(lp571
g10
(g12
S'M\xfeN\x0bu%\x1c@'
tRp572
aI2
asS'1.25'
p573
(lp574
g10
(g12
S'1D\x7f\nt\xb1\x0f@'
tRp575
aI2
assS'0.5'
p576
(dp577
S'1.15'
p578
(lp579
g10
(g12
S'\xb0\xcb\xb9\x8f\xe7/\x07@'
tRp580
aI2
asS'1.10'
p581
(lp582
g10
(g12
S'T\x82\x94\xc1\xdb3\x03@'
tRp583
aI2
asS'1.35'
p584
(lp585
g10
(g12
S'R \x81O\x10\xee\x1c@'
tRp586
aI2
asS'1.45'
p587
(lp588
g10
(g12
S'\xa2\x84%\x9e\xea\xed#@'
tRp589
aI2
asS'1.50'
p590
(lp591
g10
(g12
S'\x16\x97],\xdeD&@'
tRp592
aI2
asS'1.30'
p593
(lp594
g10
(g12
S'w-\xf9\xc0\xb5$\x17@'
tRp595
aI2
asS'1.20'
p596
(lp597
g10
(g12
S'\xd3\xc1\x91NE\xa5\x0c@'
tRp598
aI2
asS'1.40'
p599
(lp600
g10
(g12
S'\xadv\xc8@\x00S!@'
tRp601
aI2
asS'1.25'
p602
(lp603
g10
(g12
S'\x1a\xf0}F\xf6\x1d\x12@'
tRp604
aI2
assS'1.0'
p605
(dp606
S'1.15'
p607
(lp608
g10
(g12
S'\x96\xd6b\x94\x91e\x08@'
tRp609
aI2
asS'1.10'
p610
(lp611
g10
(g12
S"vA'\xe4*%\x04@"
tRp612
aI2
asS'1.40'
p613
(lp614
g10
(g12
S'b^\xda\xc5Ai$@'
tRp615
aI2
asS'1.45'
p616
(lp617
g10
(g12
S"\xc6F\x1aH\xfa\x99'@"
tRp618
aI2
asS'1.50'
p619
(lp620
g10
(g12
S'2\x92q\xe9!T*@'
tRp621
aI2
asS'1.30'
p622
(lp623
g10
(g12
S'\xb2\x8cZ\xe7\xf0\xcf\x19@'
tRp624
aI2
asS'1.20'
p625
(lp626
g10
(g12
S'\x92\xa4aMZ^\x0e@'
tRp627
aI2
asS'1.35'
p628
(lp629
g10
(g12
S'\n\xef\x89\xeb\xb9\xba @'
tRp630
aI2
asS'1.25'
p631
(lp632
g10
(g12
S'\x9e9!\x92T\x8a\x13@'
tRp633
aI2
asssS'ArcDipReal'
p634
(dp635
S'0.0'
p636
(dp637
S'1.15'
p638
(lp639
g10
(g12
S'\xe2 7eC\xef8?'
tRp640
aI2
asS'1.10'
p641
(lp642
g10
(g12
S'~l\xe7I\n\x9e5?'
tRp643
aI2
asS'1.40'
p644
(lp645
g10
(g12
S'\xd6\xe2t\xf9X\r\xd7?'
tRp646
aI2
asS'1.45'
p647
(lp648
g10
(g12
S'x\x0e\xb8\xa7OE\xf1?'
tRp649
aI2
asS'1.50'
p650
(lp651
g10
(g12
S'\xd3\x16\xc7vA\xde\xf8?'
tRp652
aI2
asS'1.30'
p653
(lp654
g10
(g12
S'I\xd0$\x80\xac/D?'
tRp655
aI2
asS'1.20'
p656
(lp657
g10
(g12
S'\xec\xfa\x01\x9ba\x1c=?'
tRp658
aI2
asS'1.35'
p659
(lp660
g10
(g12
S'@\xbc\x99\xc8\xf8cH?'
tRp661
aI2
asS'1.25'
p662
(lp663
g10
(g12
S'\xc8\xcfWh\x13\x08A?'
tRp664
aI2
assS'1.0'
p665
(dp666
S'1.15'
p667
(lp668
g10
(g12
S'\xae(\xd3\x86I~9?'
tRp669
aI2
asS'1.10'
p670
(lp671
g10
(g12
S'\xc3\xcb\x03\xb64p6?'
tRp672
aI2
asS'1.35'
p673
(lp674
g10
(g12
S'z\x01^\xa2\xfa\xd3H?'
tRp675
aI2
asS'1.30'
p676
(lp677
g10
(g12
S'%\xfe\xeb~\x86\xa3D?'
tRp678
aI2
asS'1.50'
p679
(lp680
g10
(g12
S'OfX\xae\xac\x02\n@'
tRp681
aI2
asS'1.45'
p682
(lp683
g10
(g12
S'\xa6jw\x8d\x02\x88\x03@'
tRp684
aI2
asS'1.20'
p685
(lp686
g10
(g12
S'9\x1eZ\xc9rr=?'
tRp687
aI2
asS'1.40'
p688
(lp689
g10
(g12
S'I\r\x90\x9d \t\xe6?'
tRp690
aI2
asS'1.25'
p691
(lp692
g10
(g12
S'\x9e\x02)\\\xf5WA?'
tRp693
aI2
assS'0.5'
p694
(dp695
S'1.15'
p696
(lp697
g10
(g12
S'<\x9e \x1d\xe0\xe49?'
tRp698
aI2
asS'1.10'
p699
(lp700
g10
(g12
S'\x16<\n1\xad\x896?'
tRp701
aI2
asS'1.40'
p702
(lp703
g10
(g12
S'\x16&e\xa1b\x81\xe9?'
tRp704
aI2
asS'1.45'
p705
(lp706
g10
(g12
S'\x1e\x04\xf8\x89\x85\xe5\x00@'
tRp707
aI2
asS'1.50'
p708
(lp709
g10
(g12
S'\xe6J:\xb5\xeb}\x06@'
tRp710
aI2
asS'1.30'
p711
(lp712
g10
(g12
S'z\xc8B+\x8enD?'
tRp713
aI2
asS'1.20'
p714
(lp715
g10
(g12
S'X`\xb9E\xba\xb0=?'
tRp716
aI2
asS'1.35'
p717
(lp718
g10
(g12
S'\xc8\xa3\xfa\\[tH?'
tRp719
aI2
asS'1.25'
p720
(lp721
g10
(g12
S'Nn%9\xbaHA?'
tRp722
aI2
assssS'5222 2.3'
p723
(dp724
S'ArcQuadReal'
p725
(dp726
S'0.0'
p727
(dp728
S'1.15'
p729
(lp730
g10
(g12
S'\x1f\xdd\x83\x994I\xf6?'
tRp731
aI1
asS'1.10'
p732
(lp733
g10
(g12
S'P\x98\xef\xb3\xb9/4?'
tRp734
aI2
asS'1.35'
p735
(lp736
g10
(g12
S'Th\tcQ\xb0!@'
tRp737
aI2
asS'1.30'
p738
(lp739
g10
(g12
S'D\xafUU\xc5\xe9\x1e@'
tRp740
aI2
asS'1.50'
p741
(lp742
g10
(g12
S"\xca\x02q\xdc(_'@"
tRp743
aI2
asS'1.45'
p744
(lp745
g10
(g12
S'\xba\xa0iI\x9d\x9b%@'
tRp746
aI2
asS'1.20'
p747
(lp748
g10
(g12
S'h(%\x99\xdf\xd9\x13@'
tRp749
aI2
asS'1.40'
p750
(lp751
g10
(g12
S'\xbf\xdcZ\x99\xd9\xa6#@'
tRp752
aI2
asS'1.25'
p753
(lp754
g10
(g12
S'\xa0\x1f)\xa6\x9a\xe3\x19@'
tRp755
aI2
assS'1.0'
p756
(dp757
S'1.15'
p758
(lp759
g10
(g12
S'\xcc\xb4\xbb\xd1\x89\xc4\x0b@'
tRp760
aI2
asS'1.10'
p761
(lp762
g10
(g12
S'B\xc2\xaa\xa7\xeeT2?'
tRp763
aI2
asS'1.40'
p764
(lp765
g10
(g12
S'~}$\xdaL\xbf(@'
tRp766
aI2
asS'1.30'
p767
(lp768
g10
(g12
S'\xd8\xb8\xc33\xc0%$@'
tRp769
aI2
asS'1.50'
p770
(lp771
g10
(g12
S'\xc2\xe8JZ|\xab,@'
tRp772
aI2
asS'1.45'
p773
(lp774
g10
(g12
S'\x02d\xcb\x96\xa0\xbc*@'
tRp775
aI2
asS'1.20'
p776
(lp777
g10
(g12
S'z-\xfa\xb1\xc1\xa2\x1b@'
tRp778
aI2
asS'1.35'
p779
(lp780
g10
(g12
S'-_\xe5cn\x86&@'
tRp781
aI2
asS'1.25'
p782
(lp783
g10
(g12
S'W\xb9k\xb3\xa0]!@'
tRp784
aI2
assS'0.5'
p785
(dp786
S'1.15'
p787
(lp788
g10
(g12
S'\xa8^VRc\xc5\x0b@'
tRp789
aI2
asS'1.10'
p790
(lp791
g10
(g12
S'\xcc\x15\xd3\xed\xa585?'
tRp792
aI2
asS'1.35'
p793
(lp794
g10
(g12
S'V\xad\x98\xe9\xc5\x11$@'
tRp795
aI2
asS'1.45'
p796
(lp797
g10
(g12
S'.l\xda\xa8d\x1a(@'
tRp798
aI2
asS'1.50'
p799
(lp800
g10
(g12
S'*C\x04^_\xed)@'
tRp801
aI2
asS'1.30'
p802
(lp803
g10
(g12
S'\x19\xd0T\xe9k\xbe!@'
tRp804
aI2
asS'1.20'
p805
(lp806
g10
(g12
S'8\xbb\xb4\x9e\xa2\xf7\x17@'
tRp807
aI2
asS'1.40'
p808
(lp809
g10
(g12
S'\xcd)\x07\x1e\x07,&@'
tRp810
aI2
asS'1.25'
p811
(lp812
g10
(g12
S'\xc427<[;\x1e@'
tRp813
aI2
asssS'Drift'
p814
(dp815
S'0.0'
p816
(dp817
S'1.15'
p818
(lp819
g10
(g12
S'K_\x82\x82p@\xfb?'
tRp820
aI2
asS'1.10'
p821
(lp822
g10
(g12
S'\xe0\xe5\xb6\x94Uq\xf6?'
tRp823
aI2
asS'1.35'
p824
(lp825
g10
(g12
S'O\xb0=\xae\x0b\xcc\x10@'
tRp826
aI2
asS'1.30'
p827
(lp828
g10
(g12
S'\xd0\xca\r\x0e\xa4\x15\x0b@'
tRp829
aI2
asS'1.50'
p830
(lp831
g10
(g12
S'\x81\x1ae\xa7O\x17\x1a@'
tRp832
aI2
asS'1.45'
p833
(lp834
g10
(g12
S'\xf4=Z\x14\xd10\x17@'
tRp835
aI2
asS'1.20'
p836
(lp837
g10
(g12
S'B\x1a\xa9\xf1\xa3\xe8\x00@'
tRp838
aI2
asS'1.40'
p839
(lp840
g10
(g12
S'\x95\xd2\x91\x81\x19\x14\x14@'
tRp841
aI2
asS'1.25'
p842
(lp843
g10
(g12
S'p\xfb\xed\x00\x92`\x05@'
tRp844
aI2
assS'1.0'
p845
(dp846
S'1.15'
p847
(lp848
g10
(g12
S'\xa4\xd8G\x18\x962\x00@'
tRp849
aI2
asS'1.10'
p850
(lp851
g10
(g12
S'v\xe8\xfa\xd4zM\xfa?'
tRp852
aI2
asS'1.40'
p853
(lp854
g10
(g12
S'4\xe6\x8c\xccn\xb9\x1e@'
tRp855
aI2
asS'1.45'
p856
(lp857
g10
(g12
S'>\xa5u\x89`\xb2!@'
tRp858
aI2
asS'1.50'
p859
(lp860
g10
(g12
S'"!\x939\xe9\xa8#@'
tRp861
aI2
asS'1.30'
p862
(lp863
g10
(g12
S'0\x01GZ\xc9\xfa\x12@'
tRp864
aI2
asS'1.20'
p865
(lp866
g10
(g12
S'`\xd8\xb9\x93\\\xab\x04@'
tRp867
aI2
asS'1.35'
p868
(lp869
g10
(g12
S':_\x91`i#\x19@'
tRp870
aI2
asS'1.25'
p871
(lp872
g10
(g12
S'\x82J\xd4\x88\xd2\x8d\x0b@'
tRp873
aI2
assS'0.5'
p874
(dp875
S'1.15'
p876
(lp877
g10
(g12
S'\x93\xcbb_\xf7r\xfe?'
tRp878
aI2
asS'1.10'
p879
(lp880
g10
(g12
S'\xbe\x97Q\xd1\xe1\xcd\xf8?'
tRp881
aI2
asS'1.35'
p882
(lp883
g10
(g12
S'T\x99\xebS\xcf-\x15@'
tRp884
aI2
asS'1.45'
p885
(lp886
g10
(g12
S'\xf7V\xc2\xe8\x1d^\x1d@'
tRp887
aI2
asS'1.50'
p888
(lp889
g10
(g12
S'\xfd\xb4T\x00\xc5d @'
tRp890
aI2
asS'1.30'
p891
(lp892
g10
(g12
S'\x0cX(\xaew\x9a\x10@'
tRp893
aI2
asS'1.20'
p894
(lp895
g10
(g12
S'\x80m\x1b\xa5\xacE\x03@'
tRp896
aI2
asS'1.40'
p897
(lp898
g10
(g12
S'^2C|\x90\x87\x19@'
tRp899
aI2
asS'1.25'
p900
(lp901
g10
(g12
S'\x08OF\xb4\xf6*\t@'
tRp902
aI2
asssS'ArcDipReal'
p903
(dp904
S'0.0'
p905
(dp906
S'1.15'
p907
(lp908
g10
(g12
S'\xce\xf5rR\x80\xa53?'
tRp909
aI2
asS'1.10'
p910
(lp911
g10
(g12
S'3\x08*\xf1\xd8(1?'
tRp912
aI2
asS'1.35'
p913
(lp914
g10
(g12
S'bVr\xe9\x97\xfeC?'
tRp915
aI2
asS'1.45'
p916
(lp917
g10
(g12
S'l/\x84\xf7!\xe4\xef?'
tRp918
aI2
asS'1.50'
p919
(lp920
g10
(g12
S'\xcc\xd4\xb6D\xf0\x03\xf8?'
tRp921
aI2
asS'1.30'
p922
(lp923
g10
(g12
S'iS\x1a\xae(:@?'
tRp924
aI2
asS'1.20'
p925
(lp926
g10
(g12
S'\x80va\xf4j\xe96?'
tRp927
aI2
asS'1.40'
p928
(lp929
g10
(g12
S'\x8e\xca\xb6c\xe6\xc1\xde?'
tRp930
aI2
asS'1.25'
p931
(lp932
g10
(g12
S'~\xca\xb0\xc1\xa8>;?'
tRp933
aI2
assS'1.0'
p934
(dp935
S'1.15'
p936
(lp937
g10
(g12
S'\x96\x94p\xc2`\xe73?'
tRp938
aI2
asS'1.10'
p939
(lp940
g10
(g12
S'\xde&\x11\x98\x1a\x9e1?'
tRp941
aI2
asS'1.35'
p942
(lp943
g10
(g12
S'\x92\xd4\xf3\x9d\x0e\x1dD?'
tRp944
aI2
asS'1.30'
p945
(lp946
g10
(g12
S'\xd8v\x8aNL\x11@?'
tRp947
aI2
asS'1.50'
p948
(lp949
g10
(g12
S'\xae\x8f\x1ai\x88!\t@'
tRp950
aI2
asS'1.45'
p951
(lp952
g10
(g12
S'\x92k\x14\xd8>m\x02@'
tRp953
aI2
asS'1.20'
p954
(lp955
g10
(g12
S'\xff\xf2\xbb!Ne7?'
tRp956
aI2
asS'1.40'
p957
(lp958
g10
(g12
S'\xe14\xe6\x98\xcd\x86\xf3?'
tRp959
aI2
asS'1.25'
p960
(lp961
g10
(g12
S'\x10\x06\xf7\xc0\xdcz;?'
tRp962
aI2
assS'0.5'
p963
(dp964
S'1.15'
p965
(lp966
g10
(g12
S'\xc0\xd3\xff\xac\xcbZ4?'
tRp967
aI2
asS'1.10'
p968
(lp969
g10
(g12
S'\\c[\xda\x94\xe91?'
tRp970
aI2
asS'1.40'
p971
(lp972
g10
(g12
S'l\x81)\xf94A\xf1?'
tRp973
aI2
asS'1.30'
p974
(lp975
g10
(g12
S'#\n\x8f\xdcW?@?'
tRp976
aI2
asS'1.50'
p977
(lp978
g10
(g12
S'\xc4\x97\x16[\xd3$\x07@'
tRp979
aI2
asS'1.45'
p980
(lp981
g10
(g12
S'T;\xdf]\x84\xe8\x00@'
tRp982
aI2
asS'1.20'
p983
(lp984
g10
(g12
S'P\xd2\xa2#\xe4\x9f7?'
tRp985
aI2
asS'1.35'
p986
(lp987
g10
(g12
S'\xe22\xe3\xd5K&D?'
tRp988
aI2
asS'1.25'
p989
(lp990
g10
(g12
S'\xfa\x92z\xfa\xa3\xcb;?'
tRp991
aI2
assssS'5222 1.63'
p992
(dp993
S'ArcQuadReal'
p994
(dp995
S'0.0'
p996
(dp997
S'1.15'
p998
(lp999
g10
(g12
S'9/\xbcEg\xf3\n@'
tRp1000
aI2
asS'1.10'
p1001
(lp1002
g10
(g12
S'\xe4\x8d>\xc5~j\xf8?'
tRp1003
aI2
asS'1.35'
p1004
(lp1005
g10
(g12
S'\x1c\xa8V\x81\xdd@\x1c@'
tRp1006
aI2
asS'1.30'
p1007
(lp1008
g10
(g12
S'\x86#\xc5\xcb\xbd:\x19@'
tRp1009
aI2
asS'1.50'
p1010
(lp1011
g10
(g12
S'\xc0=ZC\x18\x06"@'
tRp1012
aI2
asS'1.45'
p1013
(lp1014
g10
(g12
S'\x92c/K\x8b\xcf @'
tRp1015
aI2
asS'1.20'
p1016
(lp1017
g10
(g12
S'M\x85O|\xdb\x19\x12@'
tRp1018
aI2
asS'1.40'
p1019
(lp1020
g10
(g12
S'\x072b\\j\r\x1f@'
tRp1021
aI2
asS'1.25'
p1022
(lp1023
g10
(g12
S'\xf2Y\xfa&\xe7\xe4\x15@'
tRp1024
aI2
assS'1.0'
p1025
(dp1026
S'1.15'
p1027
(lp1028
g10
(g12
S'\xe6aC\xe3\x8e"\x13@'
tRp1029
aI2
asS'1.10'
p1030
(lp1031
g10
(g12
S'\x80\\\x14X\x9d\xf4\xe8?'
tRp1032
aI2
asS'1.40'
p1033
(lp1034
g10
(g12
S'\xb8\x9e|\x86z\xfc"@'
tRp1035
aI2
asS'1.30'
p1036
(lp1037
g10
(g12
S'TS\xdf\xa1S\xea\x1f@'
tRp1038
aI2
asS'1.50'
p1039
(lp1040
g10
(g12
S'\x04\xe0\xe3\x8e\x8a\xa5%@'
tRp1041
aI2
asS'1.45'
p1042
(lp1043
g10
(g12
S'\xc8`\xa4M*^$@'
tRp1044
aI2
asS'1.20'
p1045
(lp1046
g10
(g12
S'P\xb9\xa1Z%f\x18@'
tRp1047
aI2
asS'1.35'
p1048
(lp1049
g10
(g12
S'\xbfN\xe1\x00\x1e\x85!@'
tRp1050
aI2
asS'1.25'
p1051
(lp1052
g10
(g12
S'8p\x80Fip\x1c@'
tRp1053
aI2
assS'0.5'
p1054
(dp1055
S'1.15'
p1056
(lp1057
g10
(g12
S'\xa0\x162\x89\xf8\xc6\x10@'
tRp1058
aI2
asS'1.10'
p1059
(lp1060
g10
(g12
S'\xfa\xc1\x18\x7f|\xfd\xfe?'
tRp1061
aI2
asS'1.35'
p1062
(lp1063
g10
(g12
S'P\xf8>\xbc\x8f\xc0\x1f@'
tRp1064
aI2
asS'1.45'
p1065
(lp1066
g10
(g12
S'\n\\\x068W\xa3"@'
tRp1067
aI2
asS'1.50'
p1068
(lp1069
g10
(g12
S'\x96\xc88\xe6\xf6\xe4#@'
tRp1070
aI2
asS'1.30'
p1071
(lp1072
g10
(g12
S'W%\xc12\xa6\xb4\x1c@'
tRp1073
aI2
asS'1.20'
p1074
(lp1075
g10
(g12
S'\xb7\xf1\xbfc\xcf\x88\x15@'
tRp1076
aI2
asS'1.40'
p1077
(lp1078
g10
(g12
S'\xc8\x865\x18\xabJ!@'
tRp1079
aI2
asS'1.25'
p1080
(lp1081
g10
(g12
S'\x97V\x9b\xc7\xb5\x1b\x17@'
tRp1082
aI2
asssS'ArcDipReal'
p1083
(dp1084
S'0.0'
p1085
(dp1086
S'1.15'
p1087
(lp1088
g10
(g12
S'\xb9+\x89\\\xd672?'
tRp1089
aI2
asS'1.10'
p1090
(lp1091
g10
(g12
S'c\xe4\xd8\xb8\x81\x84/?'
tRp1092
aI2
asS'1.40'
p1093
(lp1094
g10
(g12
S'\xc8\xfb\xcd(\xc9\xcc\xc5?'
tRp1095
aI2
asS'1.30'
p1096
(lp1097
g10
(g12
S'\xa8\xc2\x9bp\xcd\xd6=?'
tRp1098
aI2
asS'1.50'
p1099
(lp1100
g10
(g12
S'\xa8\xd6\xc9\xbc\xcc\xbc\xf6?'
tRp1101
aI2
asS'1.45'
p1102
(lp1103
g10
(g12
S'1P\xf4G3 \xf0?'
tRp1104
aI2
asS'1.20'
p1105
(lp1106
g10
(g12
S'\x86\x84\x84\xe5\x00\xd24?'
tRp1107
aI2
asS'1.35'
p1108
(lp1109
g10
(g12
S'\x84\xfaRj\xf8\xdcA?'
tRp1110
aI2
asS'1.25'
p1111
(lp1112
g10
(g12
S'\xb6\xd4\x1e\xcc\x17\xf88?'
tRp1113
aI2
assS'1.0'
p1114
(dp1115
S'1.15'
p1116
(lp1117
g10
(g12
S'\xe1\xc6[\xf8&q2?'
tRp1118
aI2
asS'1.10'
p1119
(lp1120
g10
(g12
S'T\xf1\x1c#}\x040?'
tRp1121
aI2
asS'1.40'
p1122
(lp1123
g10
(g12
S'.\xd9\x0b\x93J\x03\xf6?'
tRp1124
aI2
asS'1.45'
p1125
(lp1126
g10
(g12
S'\x81!\xe0\xa2a\xb0\x02@'
tRp1127
aI2
asS'1.50'
p1128
(lp1129
g10
(g12
S'\xb3G~\\=\xf9\t@'
tRp1130
aI2
asS'1.30'
p1131
(lp1132
g10
(g12
S'F\xe6e\x01\xc5\xec=?'
tRp1133
aI2
asS'1.20'
p1134
(lp1135
g10
(g12
S'B\xe6oE\x82a5?'
tRp1136
aI2
asS'1.35'
p1137
(lp1138
g10
(g12
S'h\xc3\xe3\x1d%3B?'
tRp1139
aI2
asS'1.25'
p1140
(lp1141
g10
(g12
S'\xf6`W\xe5\x87\xee8?'
tRp1142
aI2
assS'0.5'
p1143
(dp1144
S'1.15'
p1145
(lp1146
g10
(g12
S'\x9bE\xfd\xbc\x9382?'
tRp1147
aI2
asS'1.10'
p1148
(lp1149
g10
(g12
S'49~\xf5R 0?'
tRp1150
aI2
asS'1.40'
p1151
(lp1152
g10
(g12
S'\x8dx\xdb\xa5\xe4\x14\xf3?'
tRp1153
aI2
asS'1.30'
p1154
(lp1155
g10
(g12
S'\x9c\x00\xd4\xf0\xbb{=?'
tRp1156
aI2
asS'1.50'
p1157
(lp1158
g10
(g12
S'\xa0\xe2\x9e\xb1\xc6\xba\x06@'
tRp1159
aI2
asS'1.45'
p1160
(lp1161
g10
(g12
S'\x98\x8a\xf7\xf3\\\xbf\x00@'
tRp1162
aI2
asS'1.20'
p1163
(lp1164
g10
(g12
S':\xd5k\xd9;=5?'
tRp1165
aI2
asS'1.35'
p1166
(lp1167
g10
(g12
S'\xae}\xc9\x8ak\xfeA?'
tRp1168
aI2
asS'1.25'
p1169
(lp1170
g10
(g12
S'\xf9\xb5\x12\xb7\xec\xa08?'
tRp1171
aI2
assssS'5219 0.92'
p1172
(dp1173
S'ArcQuadReal'
p1174
(dp1175
S'0.0'
p1176
(dp1177
S'1.15'
p1178
(lp1179
g10
(g12
S'\xfc\xf9\x86\xa8~\xa3\x11@'
tRp1180
aI2
asS'1.10'
p1181
(lp1182
g10
(g12
S'\x08\xbb\x08\xd2\x02\xe6\xda?'
tRp1183
aI2
asS'1.35'
p1184
(lp1185
g10
(g12
S'\xbe\x8a\x1c\xc0\xc69#@'
tRp1186
aI2
asS'1.30'
p1187
(lp1188
g10
(g12
S'H\xf2]{\xc2%!@'
tRp1189
aI2
asS'1.50'
p1190
(lp1191
g10
(g12
S'\x9c\xc1\x88\xa7\x07\x9d(@'
tRp1192
aI2
asS'1.45'
p1193
(lp1194
g10
(g12
S'vm2U\xdf\xf4&@'
tRp1195
aI2
asS'1.20'
p1196
(lp1197
g10
(g12
S'e\xdaB\xe5\xb8]\x18@'
tRp1198
aI2
asS'1.40'
p1199
(lp1200
g10
(g12
S'>\x1f\xae\xc3\xfd)%@'
tRp1201
aI2
asS'1.25'
p1202
(lp1203
g10
(g12
S'\xb6E1\xf6\xeb\xb1\x1d@'
tRp1204
aI2
assS'0.5'
p1205
(dp1206
S'1.15'
p1207
(lp1208
g10
(g12
S'|\x9fQHg\xc5\x15@'
tRp1209
aI2
asS'1.10'
p1210
(lp1211
g10
(g12
S'\x18R\xcb\xdf\xc2\x07\x7f?'
tRp1212
aI2
asS'1.40'
p1213
(lp1214
g10
(g12
S"\xdb\xbf\xad_ci'@"
tRp1215
aI2
asS'1.45'
p1216
(lp1217
g10
(g12
S'\xc2\x1d\xa4\xa5\xfc?)@'
tRp1218
aI2
asS'1.50'
p1219
(lp1220
g10
(g12
S'\xb9\x1d\x8b\xec\x06\xfc*@'
tRp1221
aI2
asS'1.30'
p1222
(lp1223
g10
(g12
S'\xc8W\xe5~ZV#@'
tRp1224
aI2
asS'1.20'
p1225
(lp1226
g10
(g12
S'{\xedC\xfc)\xae\x1c@'
tRp1227
aI2
asS'1.35'
p1228
(lp1229
g10
(g12
S'\x10r\xdd\x96\xddw%@'
tRp1230
aI2
asS'1.25'
p1231
(lp1232
g10
(g12
S'^\xc9\xcc,5\t!@'
tRp1233
aI2
assS'1.0'
p1234
(dp1235
S'1.15'
p1236
(lp1237
g10
(g12
S'\xb2-\x9a\x94\xf1\xb7\x18@'
tRp1238
aI2
asS'1.10'
p1239
(lp1240
g10
(g12
S'$\xba\x1c\xc5l\xc3b?'
tRp1241
aI2
asS'1.40'
p1242
(lp1243
g10
(g12
S'\xf0p/\x94n\x95)@'
tRp1244
aI2
asS'1.45'
p1245
(lp1246
g10
(g12
S'\xb7a\xe3\xa5S}+@'
tRp1247
aI2
asS'1.50'
p1248
(lp1249
g10
(g12
S'f\xa3_\x00\xde@-@'
tRp1250
aI2
asS'1.30'
p1251
(lp1252
g10
(g12
S'\x89\x10L\xf81f%@'
tRp1253
aI2
asS'1.20'
p1254
(lp1255
g10
(g12
S'\xb6\x9a\xbb\xdd^. @'
tRp1256
aI2
asS'1.35'
p1257
(lp1258
g10
(g12
S"*Y\xe48\x15\x90'@"
tRp1259
aI2
asS'1.25'
p1260
(lp1261
g10
(g12
S'\x98\x1a+\xfcK\xfa"@'
tRp1262
aI2
asssS'Drift'
p1263
(dp1264
S'0.5'
p1265
(dp1266
S'1.15'
p1267
(lp1268
g10
(g12
S'\xba\x9d*^a\x92U?'
tRp1269
aI2
asS'1.10'
p1270
(lp1271
g10
(g12
S'\x8adh\x9b\xec\xbcR?'
tRp1272
aI2
asS'1.40'
p1273
(lp1274
g10
(g12
S'n\\U\x8f\xa4oj?'
tRp1275
aI2
asS'1.45'
p1276
(lp1277
g10
(g12
S'p-}\xb4\xcf\xb3p?'
tRp1278
aI2
asS'1.50'
p1279
(lp1280
g10
(g12
S'\xc3\xafZ\xb0~\x9b\x17@'
tRp1281
aI2
asS'1.30'
p1282
(lp1283
g10
(g12
S'Z\x91g\x07\xbb\xd4a?'
tRp1284
aI2
asS'1.20'
p1285
(lp1286
g10
(g12
S'\x04\xaa~\xca\x94(Y?'
tRp1287
aI2
asS'1.35'
p1288
(lp1289
g10
(g12
S'\x18yUc\x11xe?'
tRp1290
aI2
asS'1.25'
p1291
(lp1292
g10
(g12
S'd\xef\xb6\x92q\x9b]?'
tRp1293
aI2
assS'1.0'
p1294
(dp1295
S'1.15'
p1296
(lp1297
g10
(g12
S'(\x93\x93\x03>pU?'
tRp1298
aI2
asS'1.10'
p1299
(lp1300
g10
(g12
S'6O@\xb2 \x90R?'
tRp1301
aI2
asS'1.35'
p1302
(lp1303
g10
(g12
S'\x9b*XS\xd6Qe?'
tRp1304
aI2
asS'1.45'
p1305
(lp1306
g10
(g12
S'\x8d1\x8d\x19&\x10p?'
tRp1307
aI2
asS'1.50'
p1308
(lp1309
g10
(g12
S'\xe2j\xb5\x10Vi\x1c@'
tRp1310
aI2
asS'1.30'
p1311
(lp1312
g10
(g12
S'\x91BU\xe1\xf9\x8ca?'
tRp1313
aI2
asS'1.20'
p1314
(lp1315
g10
(g12
S'N\x94\xcd\xb49\xa2X?'
tRp1316
aI2
asS'1.40'
p1317
(lp1318
g10
(g12
S'\xac\xf44\x8c\xae\nj?'
tRp1319
aI2
asS'1.25'
p1320
(lp1321
g10
(g12
S' \xb8\x9b\x17\x7fZ]?'
tRp1322
aI2
asssS'ArcDipReal'
p1323
(dp1324
S'0.0'
p1325
(dp1326
S'1.15'
p1327
(lp1328
g10
(g12
S'+\xd2Q\xba\xf5\xa58?'
tRp1329
aI2
asS'1.10'
p1330
(lp1331
g10
(g12
S'\xea1\x93\x9e\xb6\xa75?'
tRp1332
aI2
asS'1.35'
p1333
(lp1334
g10
(g12
S'hNZ\xadc[H?'
tRp1335
aI2
asS'1.30'
p1336
(lp1337
g10
(g12
S'_\x00Y/\x873D?'
tRp1338
aI2
asS'1.50'
p1339
(lp1340
g10
(g12
S'\xe5\xfb\xd0\xf4C\xfc\xf9?'
tRp1341
aI2
asS'1.45'
p1342
(lp1343
g10
(g12
S'\xa6 \x99\x00?f\xf2?'
tRp1344
aI2
asS'1.20'
p1345
(lp1346
g10
(g12
S'\x9c\xd8\x06\xb6\xa8\xf5<?'
tRp1347
aI2
asS'1.40'
p1348
(lp1349
g10
(g12
S'\xce\x8a\x1a\xb1\xc5\x0f\xd3?'
tRp1350
aI2
asS'1.25'
p1351
(lp1352
g10
(g12
S'\xa8\x01]\x93@\xbe@?'
tRp1353
aI2
assS'0.5'
p1354
(dp1355
S'1.15'
p1356
(lp1357
g10
(g12
S'\x8e\x95\x9f,_\x9f9?'
tRp1358
aI2
asS'1.10'
p1359
(lp1360
g10
(g12
S'S\xf0\xde\x1d\x11?6?'
tRp1361
aI2
asS'1.40'
p1362
(lp1363
g10
(g12
S'\xbe\xbf\x93\xe1y\xa8\xf2?'
tRp1364
aI2
asS'1.45'
p1365
(lp1366
g10
(g12
S'\xc4\x03\x9b\xab\xd8)\x02@'
tRp1367
aI2
asS'1.50'
p1368
(lp1369
g10
(g12
S'F\xefq\xad\xe3\x98\x07@'
tRp1370
aI2
asS'1.30'
p1371
(lp1372
g10
(g12
S'@\x85\x19\xb6\x89\x9bD?'
tRp1373
aI2
asS'1.20'
p1374
(lp1375
g10
(g12
S'\xdeWM\x15ZN=?'
tRp1376
aI2
asS'1.35'
p1377
(lp1378
g10
(g12
S'\xa6\xd8\xd0\x89\xdeAH?'
tRp1379
aI2
asS'1.25'
p1380
(lp1381
g10
(g12
S'f/\xefUtCA?'
tRp1382
aI2
assS'1.0'
p1383
(dp1384
S'1.15'
p1385
(lp1386
g10
(g12
S'WDU\x04Ob9?'
tRp1387
aI2
asS'1.10'
p1388
(lp1389
g10
(g12
S'\xb8\xba\xbb;096?'
tRp1390
aI2
asS'1.40'
p1391
(lp1392
g10
(g12
S"'\x0c\nW\xfb1\xef?"
tRp1393
aI2
asS'1.30'
p1394
(lp1395
g10
(g12
S'N\x87?\xbb\xf6\xb7D?'
tRp1396
aI2
asS'1.50'
p1397
(lp1398
g10
(g12
S'\xd8\r\xa9K=.\x0b@'
tRp1399
aI2
asS'1.45'
p1400
(lp1401
g10
(g12
S'\xceK\xda\xef\x14\x9b\x04@'
tRp1402
aI2
asS'1.20'
p1403
(lp1404
g10
(g12
S'\xac\xdc\xf0\xb4\xb0c=?'
tRp1405
aI2
asS'1.35'
p1406
(lp1407
g10
(g12
S'P\xe7\x94\x1c\x1a\xadH?'
tRp1408
aI2
asS'1.25'
p1409
(lp1410
g10
(g12
S'\xb35#\n,JA?'
tRp1411
aI2
assss.